(lp0
(S'person'
p1
F0.9896788001060486
(F367.18341064453125
F437.80145263671875
F38.514793395996094
F69.6651611328125
tp2
tp3
a(S'person'
p4
F0.9813730120658875
(F291.65362548828125
F585.266357421875
F47.23373031616211
F89.79061889648438
tp5
tp6
a(S'person'
p7
F0.9451802372932434
(F1184.445068359375
F438.14361572265625
F27.63399887084961
F70.66059875488281
tp8
tp9
a(S'person'
p10
F0.9427978992462158
(F613.549072265625
F310.9805603027344
F28.87258529663086
F47.110721588134766
tp11
tp12
a(S'person'
p13
F0.9319689273834229
(F1070.2806396484375
F212.15731811523438
F16.6505184173584
F33.18511962890625
tp14
tp15
a(S'person'
p16
F0.9279605746269226
(F298.9461975097656
F471.6380310058594
F60.612213134765625
F70.96109008789062
tp17
tp18
a(S'person'
p19
F0.8941689133644104
(F917.6439208984375
F270.20245361328125
F17.11932373046875
F29.22058868408203
tp20
tp21
a(S'person'
p22
F0.8926199078559875
(F1047.6141357421875
F487.6801452636719
F26.599294662475586
F70.4723892211914
tp23
tp24
a(S'person'
p25
F0.8923733830451965
(F688.3287353515625
F300.2090759277344
F17.36338233947754
F54.863426208496094
tp26
tp27
a(S'person'
p28
F0.8835442066192627
(F1109.42041015625
F202.57579040527344
F17.15543556213379
F30.07115936279297
tp29
tp30
a(S'person'
p31
F0.8802978992462158
(F828.4103393554688
F457.4922180175781
F54.69183349609375
F60.64540100097656
tp32
tp33
a(S'person'
p34
F0.8713310360908508
(F856.3143920898438
F386.87445068359375
F37.859336853027344
F45.99755096435547
tp35
tp36
a(S'person'
p37
F0.7614070773124695
(F1156.033203125
F520.9886474609375
F39.83382034301758
F65.85809326171875
tp38
tp39
a(S'person'
p40
F0.7554710507392883
(F530.2201538085938
F142.78485107421875
F15.13008975982666
F29.750947952270508
tp41
tp42
a.