(lp0
(S'person'
p1
F0.9883242845535278
(F750.42431640625
F317.0123596191406
F33.290313720703125
F52.69404983520508
tp2
tp3
a(S'person'
p4
F0.9707013964653015
(F786.1221923828125
F423.86529541015625
F32.285797119140625
F55.83205795288086
tp5
tp6
a(S'person'
p7
F0.9703881740570068
(F698.7157592773438
F312.6241149902344
F25.58931541442871
F50.97343444824219
tp8
tp9
a(S'person'
p10
F0.9653493165969849
(F963.1326904296875
F302.3310852050781
F32.487178802490234
F45.883262634277344
tp11
tp12
a(S'person'
p13
F0.9555698037147522
(F1036.2001953125
F301.6360778808594
F30.35468101501465
F48.652496337890625
tp14
tp15
a(S'person'
p16
F0.9513501524925232
(F1120.6480712890625
F318.2882995605469
F26.897235870361328
F52.70478057861328
tp17
tp18
a(S'person'
p19
F0.9319772124290466
(F1031.3197021484375
F371.495361328125
F33.28426742553711
F52.57193374633789
tp20
tp21
a(S'person'
p22
F0.9198228120803833
(F241.0714569091797
F357.2491760253906
F30.81277847290039
F49.723873138427734
tp23
tp24
a(S'person'
p25
F0.7130822539329529
(F1147.844482421875
F314.2643127441406
F23.835418701171875
F46.69047164916992
tp26
tp27
a(S'person'
p28
F0.7084076404571533
(F1248.8001708984375
F201.281982421875
F20.546457290649414
F33.35538101196289
tp29
tp30
a.